; ModuleID = '39/2000.c'
source_filename = "39/2000.c"
target datalayout = "e-m:e-p270:32:32-p271:32:32-p272:64:64-i64:64-f80:128-n8:16:32:64-S128"
target triple = "x86_64-pc-linux-gnu"

%struct.student = type { [20 x i8], i32, i32, i8, i8, i32, i32 }

@.str = private unnamed_addr constant [3 x i8] c"%d\00", align 1
@.str.1 = private unnamed_addr constant [18 x i8] c"%s %d %d %c %c %d\00", align 1
@stu = common dso_local global [100 x %struct.student] zeroinitializer, align 16
@.str.2 = private unnamed_addr constant [10 x i8] c"%s\0A%d\0A%d\0A\00", align 1

; Function Attrs: noinline nounwind uwtable
define dso_local void @main() #0 {
  %1 = alloca i32, align 4
  %2 = alloca i32, align 4
  %3 = alloca i32, align 4
  %4 = alloca i32, align 4
  store i32 0, i32* %3, align 4
  %5 = call i32 (i8*, ...) @__isoc99_scanf(i8* getelementptr inbounds ([3 x i8], [3 x i8]* @.str, i64 0, i64 0), i32* %1)
  store i32 0, i32* %2, align 4
  br label %6

6:                                                ; preds = %157, %0
  %7 = load i32, i32* %2, align 4
  %8 = load i32, i32* %1, align 4
  %9 = icmp slt i32 %7, %8
  br i1 %9, label %10, label %160

10:                                               ; preds = %6
  %11 = load i32, i32* %2, align 4
  %12 = sext i32 %11 to i64
  %13 = getelementptr inbounds [100 x %struct.student], [100 x %struct.student]* @stu, i64 0, i64 %12
  %14 = getelementptr inbounds %struct.student, %struct.student* %13, i32 0, i32 0
  %15 = getelementptr inbounds [20 x i8], [20 x i8]* %14, i64 0, i64 0
  %16 = load i32, i32* %2, align 4
  %17 = sext i32 %16 to i64
  %18 = getelementptr inbounds [100 x %struct.student], [100 x %struct.student]* @stu, i64 0, i64 %17
  %19 = getelementptr inbounds %struct.student, %struct.student* %18, i32 0, i32 1
  %20 = load i32, i32* %2, align 4
  %21 = sext i32 %20 to i64
  %22 = getelementptr inbounds [100 x %struct.student], [100 x %struct.student]* @stu, i64 0, i64 %21
  %23 = getelementptr inbounds %struct.student, %struct.student* %22, i32 0, i32 2
  %24 = load i32, i32* %2, align 4
  %25 = sext i32 %24 to i64
  %26 = getelementptr inbounds [100 x %struct.student], [100 x %struct.student]* @stu, i64 0, i64 %25
  %27 = getelementptr inbounds %struct.student, %struct.student* %26, i32 0, i32 4
  %28 = load i32, i32* %2, align 4
  %29 = sext i32 %28 to i64
  %30 = getelementptr inbounds [100 x %struct.student], [100 x %struct.student]* @stu, i64 0, i64 %29
  %31 = getelementptr inbounds %struct.student, %struct.student* %30, i32 0, i32 3
  %32 = load i32, i32* %2, align 4
  %33 = sext i32 %32 to i64
  %34 = getelementptr inbounds [100 x %struct.student], [100 x %struct.student]* @stu, i64 0, i64 %33
  %35 = getelementptr inbounds %struct.student, %struct.student* %34, i32 0, i32 5
  %36 = call i32 (i8*, ...) @__isoc99_scanf(i8* getelementptr inbounds ([18 x i8], [18 x i8]* @.str.1, i64 0, i64 0), i8* %15, i32* %19, i32* %23, i8* %27, i8* %31, i32* %35)
  %37 = load i32, i32* %2, align 4
  %38 = sext i32 %37 to i64
  %39 = getelementptr inbounds [100 x %struct.student], [100 x %struct.student]* @stu, i64 0, i64 %38
  %40 = getelementptr inbounds %struct.student, %struct.student* %39, i32 0, i32 1
  %41 = load i32, i32* %40, align 4
  %42 = icmp sgt i32 %41, 80
  br i1 %42, label %43, label %61

43:                                               ; preds = %10
  %44 = load i32, i32* %2, align 4
  %45 = sext i32 %44 to i64
  %46 = getelementptr inbounds [100 x %struct.student], [100 x %struct.student]* @stu, i64 0, i64 %45
  %47 = getelementptr inbounds %struct.student, %struct.student* %46, i32 0, i32 5
  %48 = load i32, i32* %47, align 8
  %49 = icmp sge i32 %48, 1
  br i1 %49, label %50, label %61

50:                                               ; preds = %43
  %51 = load i32, i32* %2, align 4
  %52 = sext i32 %51 to i64
  %53 = getelementptr inbounds [100 x %struct.student], [100 x %struct.student]* @stu, i64 0, i64 %52
  %54 = getelementptr inbounds %struct.student, %struct.student* %53, i32 0, i32 6
  %55 = load i32, i32* %54, align 4
  %56 = add nsw i32 %55, 8000
  %57 = load i32, i32* %2, align 4
  %58 = sext i32 %57 to i64
  %59 = getelementptr inbounds [100 x %struct.student], [100 x %struct.student]* @stu, i64 0, i64 %58
  %60 = getelementptr inbounds %struct.student, %struct.student* %59, i32 0, i32 6
  store i32 %56, i32* %60, align 4
  br label %61

61:                                               ; preds = %50, %43, %10
  %62 = load i32, i32* %2, align 4
  %63 = sext i32 %62 to i64
  %64 = getelementptr inbounds [100 x %struct.student], [100 x %struct.student]* @stu, i64 0, i64 %63
  %65 = getelementptr inbounds %struct.student, %struct.student* %64, i32 0, i32 1
  %66 = load i32, i32* %65, align 4
  %67 = icmp sgt i32 %66, 85
  br i1 %67, label %68, label %86

68:                                               ; preds = %61
  %69 = load i32, i32* %2, align 4
  %70 = sext i32 %69 to i64
  %71 = getelementptr inbounds [100 x %struct.student], [100 x %struct.student]* @stu, i64 0, i64 %70
  %72 = getelementptr inbounds %struct.student, %struct.student* %71, i32 0, i32 2
  %73 = load i32, i32* %72, align 8
  %74 = icmp sgt i32 %73, 80
  br i1 %74, label %75, label %86

75:                                               ; preds = %68
  %76 = load i32, i32* %2, align 4
  %77 = sext i32 %76 to i64
  %78 = getelementptr inbounds [100 x %struct.student], [100 x %struct.student]* @stu, i64 0, i64 %77
  %79 = getelementptr inbounds %struct.student, %struct.student* %78, i32 0, i32 6
  %80 = load i32, i32* %79, align 4
  %81 = add nsw i32 %80, 4000
  %82 = load i32, i32* %2, align 4
  %83 = sext i32 %82 to i64
  %84 = getelementptr inbounds [100 x %struct.student], [100 x %struct.student]* @stu, i64 0, i64 %83
  %85 = getelementptr inbounds %struct.student, %struct.student* %84, i32 0, i32 6
  store i32 %81, i32* %85, align 4
  br label %86

86:                                               ; preds = %75, %68, %61
  %87 = load i32, i32* %2, align 4
  %88 = sext i32 %87 to i64
  %89 = getelementptr inbounds [100 x %struct.student], [100 x %struct.student]* @stu, i64 0, i64 %88
  %90 = getelementptr inbounds %struct.student, %struct.student* %89, i32 0, i32 1
  %91 = load i32, i32* %90, align 4
  %92 = icmp sgt i32 %91, 90
  br i1 %92, label %93, label %104

93:                                               ; preds = %86
  %94 = load i32, i32* %2, align 4
  %95 = sext i32 %94 to i64
  %96 = getelementptr inbounds [100 x %struct.student], [100 x %struct.student]* @stu, i64 0, i64 %95
  %97 = getelementptr inbounds %struct.student, %struct.student* %96, i32 0, i32 6
  %98 = load i32, i32* %97, align 4
  %99 = add nsw i32 %98, 2000
  %100 = load i32, i32* %2, align 4
  %101 = sext i32 %100 to i64
  %102 = getelementptr inbounds [100 x %struct.student], [100 x %struct.student]* @stu, i64 0, i64 %101
  %103 = getelementptr inbounds %struct.student, %struct.student* %102, i32 0, i32 6
  store i32 %99, i32* %103, align 4
  br label %104

104:                                              ; preds = %93, %86
  %105 = load i32, i32* %2, align 4
  %106 = sext i32 %105 to i64
  %107 = getelementptr inbounds [100 x %struct.student], [100 x %struct.student]* @stu, i64 0, i64 %106
  %108 = getelementptr inbounds %struct.student, %struct.student* %107, i32 0, i32 1
  %109 = load i32, i32* %108, align 4
  %110 = icmp sgt i32 %109, 85
  br i1 %110, label %111, label %130

111:                                              ; preds = %104
  %112 = load i32, i32* %2, align 4
  %113 = sext i32 %112 to i64
  %114 = getelementptr inbounds [100 x %struct.student], [100 x %struct.student]* @stu, i64 0, i64 %113
  %115 = getelementptr inbounds %struct.student, %struct.student* %114, i32 0, i32 3
  %116 = load i8, i8* %115, align 4
  %117 = sext i8 %116 to i32
  %118 = icmp eq i32 %117, 89
  br i1 %118, label %119, label %130

119:                                              ; preds = %111
  %120 = load i32, i32* %2, align 4
  %121 = sext i32 %120 to i64
  %122 = getelementptr inbounds [100 x %struct.student], [100 x %struct.student]* @stu, i64 0, i64 %121
  %123 = getelementptr inbounds %struct.student, %struct.student* %122, i32 0, i32 6
  %124 = load i32, i32* %123, align 4
  %125 = add nsw i32 %124, 1000
  %126 = load i32, i32* %2, align 4
  %127 = sext i32 %126 to i64
  %128 = getelementptr inbounds [100 x %struct.student], [100 x %struct.student]* @stu, i64 0, i64 %127
  %129 = getelementptr inbounds %struct.student, %struct.student* %128, i32 0, i32 6
  store i32 %125, i32* %129, align 4
  br label %130

130:                                              ; preds = %119, %111, %104
  %131 = load i32, i32* %2, align 4
  %132 = sext i32 %131 to i64
  %133 = getelementptr inbounds [100 x %struct.student], [100 x %struct.student]* @stu, i64 0, i64 %132
  %134 = getelementptr inbounds %struct.student, %struct.student* %133, i32 0, i32 2
  %135 = load i32, i32* %134, align 8
  %136 = icmp sgt i32 %135, 80
  br i1 %136, label %137, label %156

137:                                              ; preds = %130
  %138 = load i32, i32* %2, align 4
  %139 = sext i32 %138 to i64
  %140 = getelementptr inbounds [100 x %struct.student], [100 x %struct.student]* @stu, i64 0, i64 %139
  %141 = getelementptr inbounds %struct.student, %struct.student* %140, i32 0, i32 4
  %142 = load i8, i8* %141, align 1
  %143 = sext i8 %142 to i32
  %144 = icmp eq i32 %143, 89
  br i1 %144, label %145, label %156

145:                                              ; preds = %137
  %146 = load i32, i32* %2, align 4
  %147 = sext i32 %146 to i64
  %148 = getelementptr inbounds [100 x %struct.student], [100 x %struct.student]* @stu, i64 0, i64 %147
  %149 = getelementptr inbounds %struct.student, %struct.student* %148, i32 0, i32 6
  %150 = load i32, i32* %149, align 4
  %151 = add nsw i32 %150, 850
  %152 = load i32, i32* %2, align 4
  %153 = sext i32 %152 to i64
  %154 = getelementptr inbounds [100 x %struct.student], [100 x %struct.student]* @stu, i64 0, i64 %153
  %155 = getelementptr inbounds %struct.student, %struct.student* %154, i32 0, i32 6
  store i32 %151, i32* %155, align 4
  br label %156

156:                                              ; preds = %145, %137, %130
  br label %157

157:                                              ; preds = %156
  %158 = load i32, i32* %2, align 4
  %159 = add nsw i32 %158, 1
  store i32 %159, i32* %2, align 4
  br label %6

160:                                              ; preds = %6
  store i32 0, i32* %2, align 4
  br label %161

161:                                              ; preds = %173, %160
  %162 = load i32, i32* %2, align 4
  %163 = load i32, i32* %1, align 4
  %164 = icmp slt i32 %162, %163
  br i1 %164, label %165, label %176

165:                                              ; preds = %161
  %166 = load i32, i32* %3, align 4
  %167 = load i32, i32* %2, align 4
  %168 = sext i32 %167 to i64
  %169 = getelementptr inbounds [100 x %struct.student], [100 x %struct.student]* @stu, i64 0, i64 %168
  %170 = getelementptr inbounds %struct.student, %struct.student* %169, i32 0, i32 6
  %171 = load i32, i32* %170, align 4
  %172 = add nsw i32 %166, %171
  store i32 %172, i32* %3, align 4
  br label %173

173:                                              ; preds = %165
  %174 = load i32, i32* %2, align 4
  %175 = add nsw i32 %174, 1
  store i32 %175, i32* %2, align 4
  br label %161

176:                                              ; preds = %161
  store i32 0, i32* %4, align 4
  store i32 1, i32* %2, align 4
  br label %177

177:                                              ; preds = %196, %176
  %178 = load i32, i32* %2, align 4
  %179 = load i32, i32* %1, align 4
  %180 = icmp slt i32 %178, %179
  br i1 %180, label %181, label %199

181:                                              ; preds = %177
  %182 = load i32, i32* %2, align 4
  %183 = sext i32 %182 to i64
  %184 = getelementptr inbounds [100 x %struct.student], [100 x %struct.student]* @stu, i64 0, i64 %183
  %185 = getelementptr inbounds %struct.student, %struct.student* %184, i32 0, i32 6
  %186 = load i32, i32* %185, align 4
  %187 = load i32, i32* %4, align 4
  %188 = sext i32 %187 to i64
  %189 = getelementptr inbounds [100 x %struct.student], [100 x %struct.student]* @stu, i64 0, i64 %188
  %190 = getelementptr inbounds %struct.student, %struct.student* %189, i32 0, i32 6
  %191 = load i32, i32* %190, align 4
  %192 = icmp sgt i32 %186, %191
  br i1 %192, label %193, label %195

193:                                              ; preds = %181
  %194 = load i32, i32* %2, align 4
  store i32 %194, i32* %4, align 4
  br label %195

195:                                              ; preds = %193, %181
  br label %196

196:                                              ; preds = %195
  %197 = load i32, i32* %2, align 4
  %198 = add nsw i32 %197, 1
  store i32 %198, i32* %2, align 4
  br label %177

199:                                              ; preds = %177
  %200 = load i32, i32* %4, align 4
  %201 = sext i32 %200 to i64
  %202 = getelementptr inbounds [100 x %struct.student], [100 x %struct.student]* @stu, i64 0, i64 %201
  %203 = getelementptr inbounds %struct.student, %struct.student* %202, i32 0, i32 0
  %204 = getelementptr inbounds [20 x i8], [20 x i8]* %203, i64 0, i64 0
  %205 = load i32, i32* %4, align 4
  %206 = sext i32 %205 to i64
  %207 = getelementptr inbounds [100 x %struct.student], [100 x %struct.student]* @stu, i64 0, i64 %206
  %208 = getelementptr inbounds %struct.student, %struct.student* %207, i32 0, i32 6
  %209 = load i32, i32* %208, align 4
  %210 = load i32, i32* %3, align 4
  %211 = call i32 (i8*, ...) @printf(i8* getelementptr inbounds ([10 x i8], [10 x i8]* @.str.2, i64 0, i64 0), i8* %204, i32 %209, i32 %210)
  ret void
}

declare dso_local i32 @__isoc99_scanf(i8*, ...) #1

declare dso_local i32 @printf(i8*, ...) #1


!llvm.module.flags = !{!0}
!llvm.ident = !{!1}

!0 = !{i32 1, !"wchar_size", i32 4}
!1 = !{!"clang version 10.0.0-4ubuntu1 "}
